; ModuleID = '29/345.c'
source_filename = "29/345.c"
target datalayout = "e-m:e-p270:32:32-p271:32:32-p272:64:64-i64:64-f80:128-n8:16:32:64-S128"
target triple = "x86_64-pc-linux-gnu"

@.str = private unnamed_addr constant [3 x i8] c"%d\00", align 1
@.str.1 = private unnamed_addr constant [6 x i8] c"%.3f\0A\00", align 1

; Function Attrs: noinline nounwind uwtable
define dso_local i32 @main() #0 {
  %1 = alloca i32, align 4
  %2 = alloca i32, align 4
  %3 = alloca i32, align 4
  %4 = alloca i32, align 4
  %5 = alloca i8*, align 8
  %6 = alloca i64, align 8
  %7 = alloca i64, align 8
  %8 = alloca float, align 4
  %9 = alloca i32, align 4
  store i32 0, i32* %1, align 4
  store i32 0, i32* %4, align 4
  %10 = call i32 (i8*, ...) @__isoc99_scanf(i8* getelementptr inbounds ([3 x i8], [3 x i8]* @.str, i64 0, i64 0), i32* %3)
  %11 = load i32, i32* %3, align 4
  %12 = zext i32 %11 to i64
  %13 = call i8* @llvm.stacksave()
  store i8* %13, i8** %5, align 8
  %14 = alloca i32, i64 %12, align 16
  store i64 %12, i64* %6, align 8
  store i32 0, i32* %2, align 4
  br label %15

15:                                               ; preds = %36, %0
  %16 = load i32, i32* %2, align 4
  %17 = load i32, i32* %3, align 4
  %18 = icmp slt i32 %16, %17
  br i1 %18, label %19, label %39

19:                                               ; preds = %15
  %20 = load i32, i32* %2, align 4
  %21 = sext i32 %20 to i64
  %22 = getelementptr inbounds i32, i32* %14, i64 %21
  %23 = call i32 (i8*, ...) @__isoc99_scanf(i8* getelementptr inbounds ([3 x i8], [3 x i8]* @.str, i64 0, i64 0), i32* %22)
  %24 = load i32, i32* %2, align 4
  %25 = sext i32 %24 to i64
  %26 = getelementptr inbounds i32, i32* %14, i64 %25
  %27 = load i32, i32* %26, align 4
  %28 = load i32, i32* %4, align 4
  %29 = icmp sgt i32 %27, %28
  br i1 %29, label %30, label %35

30:                                               ; preds = %19
  %31 = load i32, i32* %2, align 4
  %32 = sext i32 %31 to i64
  %33 = getelementptr inbounds i32, i32* %14, i64 %32
  %34 = load i32, i32* %33, align 4
  store i32 %34, i32* %4, align 4
  br label %35

35:                                               ; preds = %30, %19
  br label %36

36:                                               ; preds = %35
  %37 = load i32, i32* %2, align 4
  %38 = add nsw i32 %37, 1
  store i32 %38, i32* %2, align 4
  br label %15

39:                                               ; preds = %15
  %40 = load i32, i32* %4, align 4
  %41 = add nsw i32 %40, 1
  %42 = zext i32 %41 to i64
  %43 = alloca i32, i64 %42, align 16
  store i64 %42, i64* %7, align 8
  %44 = getelementptr inbounds i32, i32* %43, i64 0
  store i32 1, i32* %44, align 16
  %45 = getelementptr inbounds i32, i32* %43, i64 1
  store i32 2, i32* %45, align 4
  store i32 2, i32* %2, align 4
  br label %46

46:                                               ; preds = %65, %39
  %47 = load i32, i32* %2, align 4
  %48 = load i32, i32* %4, align 4
  %49 = icmp sle i32 %47, %48
  br i1 %49, label %50, label %68

50:                                               ; preds = %46
  %51 = load i32, i32* %2, align 4
  %52 = sub nsw i32 %51, 1
  %53 = sext i32 %52 to i64
  %54 = getelementptr inbounds i32, i32* %43, i64 %53
  %55 = load i32, i32* %54, align 4
  %56 = load i32, i32* %2, align 4
  %57 = sub nsw i32 %56, 2
  %58 = sext i32 %57 to i64
  %59 = getelementptr inbounds i32, i32* %43, i64 %58
  %60 = load i32, i32* %59, align 4
  %61 = add nsw i32 %55, %60
  %62 = load i32, i32* %2, align 4
  %63 = sext i32 %62 to i64
  %64 = getelementptr inbounds i32, i32* %43, i64 %63
  store i32 %61, i32* %64, align 4
  br label %65

65:                                               ; preds = %50
  %66 = load i32, i32* %2, align 4
  %67 = add nsw i32 %66, 1
  store i32 %67, i32* %2, align 4
  br label %46

68:                                               ; preds = %46
  store i32 0, i32* %2, align 4
  br label %69

69:                                               ; preds = %103, %68
  %70 = load i32, i32* %2, align 4
  %71 = load i32, i32* %3, align 4
  %72 = icmp slt i32 %70, %71
  br i1 %72, label %73, label %106

73:                                               ; preds = %69
  store float 0.000000e+00, float* %8, align 4
  store i32 0, i32* %9, align 4
  br label %74

74:                                               ; preds = %96, %73
  %75 = load i32, i32* %9, align 4
  %76 = load i32, i32* %2, align 4
  %77 = sext i32 %76 to i64
  %78 = getelementptr inbounds i32, i32* %14, i64 %77
  %79 = load i32, i32* %78, align 4
  %80 = icmp slt i32 %75, %79
  br i1 %80, label %81, label %99

81:                                               ; preds = %74
  %82 = load i32, i32* %9, align 4
  %83 = add nsw i32 %82, 1
  %84 = sext i32 %83 to i64
  %85 = getelementptr inbounds i32, i32* %43, i64 %84
  %86 = load i32, i32* %85, align 4
  %87 = sitofp i32 %86 to float
  %88 = load i32, i32* %9, align 4
  %89 = sext i32 %88 to i64
  %90 = getelementptr inbounds i32, i32* %43, i64 %89
  %91 = load i32, i32* %90, align 4
  %92 = sitofp i32 %91 to float
  %93 = fdiv float %87, %92
  %94 = load float, float* %8, align 4
  %95 = fadd float %94, %93
  store float %95, float* %8, align 4
  br label %96

96:                                               ; preds = %81
  %97 = load i32, i32* %9, align 4
  %98 = add nsw i32 %97, 1
  store i32 %98, i32* %9, align 4
  br label %74

99:                                               ; preds = %74
  %100 = load float, float* %8, align 4
  %101 = fpext float %100 to double
  %102 = call i32 (i8*, ...) @printf(i8* getelementptr inbounds ([6 x i8], [6 x i8]* @.str.1, i64 0, i64 0), double %101)
  br label %103

103:                                              ; preds = %99
  %104 = load i32, i32* %2, align 4
  %105 = add nsw i32 %104, 1
  store i32 %105, i32* %2, align 4
  br label %69

106:                                              ; preds = %69
  %107 = load i8*, i8** %5, align 8
  call void @llvm.stackrestore(i8* %107)
  %108 = load i32, i32* %1, align 4
  ret i32 %108
}

declare dso_local i32 @__isoc99_scanf(i8*, ...) #1

; Function Attrs: nounwind
declare i8* @llvm.stacksave() #2

declare dso_local i32 @printf(i8*, ...) #1

; Function Attrs: nounwind
declare void @llvm.stackrestore(i8*) #2


!llvm.module.flags = !{!0}
!llvm.ident = !{!1}

!0 = !{i32 1, !"wchar_size", i32 4}
!1 = !{!"clang version 10.0.0-4ubuntu1 "}
